; Function Attrs: mustprogress nounwind uwtable
define void @_ZN5osgeo4proj8metadata21GeographicBoundingBoxD2Ev(ptr noundef nonnull align 8 dereferenceable(40) %0) unnamed_addr #3 align 2 personality ptr @__gxx_personality_v0 {
  store ptr getelementptr inbounds inrange(-16, 48) ({ [8 x ptr], [5 x ptr] }, ptr @_ZTVN5osgeo4proj8metadata21GeographicBoundingBoxE, i64 0, i32 0, i64 2), ptr %0, align 8
  %2 = getelementptr inbounds i8, ptr %0, i64 16
  store ptr getelementptr inbounds inrange(-16, 24) ({ [8 x ptr], [5 x ptr] }, ptr @_ZTVN5osgeo4proj8metadata21GeographicBoundingBoxE, i64 0, i32 1, i64 2), ptr %2, align 8
  %3 = getelementptr inbounds i8, ptr %0, i64 32
  %4 = load ptr, ptr %3, align 8
  %.not.i = icmp eq ptr %4, null
  br i1 %.not.i, label %_ZNSt10unique_ptrIN5osgeo4proj8metadata21GeographicBoundingBox7PrivateESt14default_deleteIS4_EED2Ev.exit, label %_ZNKSt14default_deleteIN5osgeo4proj8metadata21GeographicBoundingBox7PrivateEEclEPS4_.exit.i

_ZNKSt14default_deleteIN5osgeo4proj8metadata21GeographicBoundingBox7PrivateEEclEPS4_.exit.i: ; preds = %1
  tail call void @_ZdlPv(ptr noundef nonnull %4) #29
  br label %_ZNSt10unique_ptrIN5osgeo4proj8metadata21GeographicBoundingBox7PrivateESt14default_deleteIS4_EED2Ev.exit

_ZNSt10unique_ptrIN5osgeo4proj8metadata21GeographicBoundingBox7PrivateESt14default_deleteIS4_EED2Ev.exit: ; preds = %1, %_ZNKSt14default_deleteIN5osgeo4proj8metadata21GeographicBoundingBox7PrivateEEclEPS4_.exit.i
  store ptr null, ptr %3, align 8
  store ptr getelementptr inbounds inrange(-16, 48) ({ [8 x ptr], [5 x ptr] }, ptr @_ZTVN5osgeo4proj8metadata16GeographicExtentE, i64 0, i32 0, i64 2), ptr %0, align 8
  store ptr getelementptr inbounds inrange(-16, 24) ({ [8 x ptr], [5 x ptr] }, ptr @_ZTVN5osgeo4proj8metadata16GeographicExtentE, i64 0, i32 1, i64 2), ptr %2, align 8
  %5 = getelementptr inbounds i8, ptr %0, i64 24
  %6 = load ptr, ptr %5, align 8
  %.not.i.i = icmp eq ptr %6, null
  br i1 %.not.i.i, label %_ZN5osgeo4proj8metadata16GeographicExtentD2Ev.exit, label %_ZNKSt14default_deleteIN5osgeo4proj8metadata16GeographicExtent7PrivateEEclEPS4_.exit.i.i

_ZNKSt14default_deleteIN5osgeo4proj8metadata16GeographicExtent7PrivateEEclEPS4_.exit.i.i: ; preds = %_ZNSt10unique_ptrIN5osgeo4proj8metadata21GeographicBoundingBox7PrivateESt14default_deleteIS4_EED2Ev.exit
  tail call void @_ZdlPv(ptr noundef nonnull %6) #29
  br label %_ZN5osgeo4proj8metadata16GeographicExtentD2Ev.exit

_ZN5osgeo4proj8metadata16GeographicExtentD2Ev.exit: ; preds = %_ZNSt10unique_ptrIN5osgeo4proj8metadata21GeographicBoundingBox7PrivateESt14default_deleteIS4_EED2Ev.exit, %_ZNKSt14default_deleteIN5osgeo4proj8metadata16GeographicExtent7PrivateEEclEPS4_.exit.i.i
  store ptr null, ptr %5, align 8
  tail call void @_ZN5osgeo4proj4util11IComparableD2Ev(ptr noundef nonnull align 8 dereferenceable(8) %2) #28
  tail call void @_ZN5osgeo4proj4util10BaseObjectD2Ev(ptr noundef nonnull align 8 dereferenceable(16) %0) #28
  ret void
}